target datalayout = "e-m:e-p270:32:32-p271:32:32-p272:64:64-i64:64-i128:128-f80:128-n8:16:32:64-S128"
target triple = "x86_64-pc-linux-gnu"

%struct.x509_attributes_st = type { ptr, i32, %union.anon }
%union.anon = type { ptr }

; Function Attrs: nounwind uwtable
define hidden i32 @X509at_get_attr_by_OBJ(ptr noundef %0, ptr noundef %1, i32 noundef %2) #0 {
  %4 = alloca i32, align 4
  %5 = alloca ptr, align 8
  %6 = alloca ptr, align 8
  %7 = alloca i32, align 4
  %8 = alloca i32, align 4
  %9 = alloca ptr, align 8
  %10 = alloca i32, align 4
  store ptr %0, ptr %5, align 8, !tbaa !6
  store ptr %1, ptr %6, align 8, !tbaa !13
  store i32 %2, ptr %7, align 4, !tbaa !11
  call void @llvm.lifetime.start.p0(i64 4, ptr %8) #3
  call void @llvm.lifetime.start.p0(i64 8, ptr %9) #3
  %11 = load ptr, ptr %5, align 8, !tbaa !6
  %12 = icmp eq ptr %11, null
  br i1 %12, label %13, label %14

13:                                               ; preds = %3
  store i32 -1, ptr %4, align 4
  store i32 1, ptr %10, align 4
  br label %46

14:                                               ; preds = %3
  %15 = load i32, ptr %7, align 4, !tbaa !11
  %16 = add nsw i32 %15, 1
  store i32 %16, ptr %7, align 4, !tbaa !11
  %17 = load i32, ptr %7, align 4, !tbaa !11
  %18 = icmp slt i32 %17, 0
  br i1 %18, label %19, label %20

19:                                               ; preds = %14
  store i32 0, ptr %7, align 4, !tbaa !11
  br label %20

20:                                               ; preds = %19, %14
  %21 = load ptr, ptr %5, align 8, !tbaa !6
  %22 = call i64 @sk_num(ptr noundef %21)
  %23 = trunc i64 %22 to i32
  store i32 %23, ptr %8, align 4, !tbaa !11
  br label %24

24:                                               ; preds = %42, %20
  %25 = load i32, ptr %7, align 4, !tbaa !11
  %26 = load i32, ptr %8, align 4, !tbaa !11
  %27 = icmp slt i32 %25, %26
  br i1 %27, label %28, label %45

28:                                               ; preds = %24
  %29 = load ptr, ptr %5, align 8, !tbaa !6
  %30 = load i32, ptr %7, align 4, !tbaa !11
  %31 = sext i32 %30 to i64
  %32 = call ptr @sk_value(ptr noundef %29, i64 noundef %31)
  store ptr %32, ptr %9, align 8, !tbaa !15
  %33 = load ptr, ptr %9, align 8, !tbaa !15
  %34 = getelementptr inbounds nuw %struct.x509_attributes_st, ptr %33, i32 0, i32 0
  %35 = load ptr, ptr %34, align 8, !tbaa !17
  %36 = load ptr, ptr %6, align 8, !tbaa !13
  %37 = call i32 @OBJ_cmp(ptr noundef %35, ptr noundef %36)
  %38 = icmp eq i32 %37, 0
  br i1 %38, label %39, label %41

39:                                               ; preds = %28
  %40 = load i32, ptr %7, align 4, !tbaa !11
  store i32 %40, ptr %4, align 4
  store i32 1, ptr %10, align 4
  br label %46

41:                                               ; preds = %28
  br label %42

42:                                               ; preds = %41
  %43 = load i32, ptr %7, align 4, !tbaa !11
  %44 = add nsw i32 %43, 1
  store i32 %44, ptr %7, align 4, !tbaa !11
  br label %24, !llvm.loop !19

45:                                               ; preds = %24
  store i32 -1, ptr %4, align 4
  store i32 1, ptr %10, align 4
  br label %46

46:                                               ; preds = %45, %39, %13
  call void @llvm.lifetime.end.p0(i64 8, ptr %9) #3
  call void @llvm.lifetime.end.p0(i64 4, ptr %8) #3
  %47 = load i32, ptr %4, align 4
  ret i32 %47
}

; Function Attrs: nounwind uwtable
define hidden i32 @X509at_get_attr_by_NID(ptr noundef %0, i32 noundef %1, i32 noundef %2) #0 {
  %4 = alloca i32, align 4
  %5 = alloca ptr, align 8
  %6 = alloca i32, align 4
  %7 = alloca i32, align 4
  %8 = alloca ptr, align 8
  %9 = alloca i32, align 4
  store ptr %0, ptr %5, align 8, !tbaa !6
  store i32 %1, ptr %6, align 4, !tbaa !11
  store i32 %2, ptr %7, align 4, !tbaa !11
  call void @llvm.lifetime.start.p0(i64 8, ptr %8) #3
  %10 = load i32, ptr %6, align 4, !tbaa !11
  %11 = call ptr @OBJ_nid2obj(i32 noundef %10)
  store ptr %11, ptr %8, align 8, !tbaa !13
  %12 = load ptr, ptr %8, align 8, !tbaa !13
  %13 = icmp eq ptr %12, null
  br i1 %13, label %14, label %15

14:                                               ; preds = %3
  store i32 -2, ptr %4, align 4
  store i32 1, ptr %9, align 4
  br label %20

15:                                               ; preds = %3
  %16 = load ptr, ptr %5, align 8, !tbaa !6
  %17 = load ptr, ptr %8, align 8, !tbaa !13
  %18 = load i32, ptr %7, align 4, !tbaa !11
  %19 = call i32 @X509at_get_attr_by_OBJ(ptr noundef %16, ptr noundef %17, i32 noundef %18)
  store i32 %19, ptr %4, align 4
  store i32 1, ptr %9, align 4
  br label %20

20:                                               ; preds = %15, %14
  call void @llvm.lifetime.end.p0(i64 8, ptr %8) #3
  %21 = load i32, ptr %4, align 4
  ret i32 %21
}