; Function Attrs: nounwind uwtable
define hidden range(i32 -2147483647, -2147483648) i32 @X509at_get_attr_by_NID(ptr noundef %0, i32 noundef %1, i32 noundef %2) local_unnamed_addr #0 {
  %4 = tail call ptr @OBJ_nid2obj(i32 noundef %1) #4
  %5 = icmp eq ptr %4, null
  br i1 %5, label %X509at_get_attr_by_OBJ.exit, label %6

6:                                                ; preds = %3
  %7 = icmp eq ptr %0, null
  br i1 %7, label %X509at_get_attr_by_OBJ.exit, label %8

8:                                                ; preds = %6
  %9 = tail call i64 @sk_num(ptr noundef nonnull %0) #4
  %10 = tail call i32 @llvm.smax.i32(i32 %2, i32 -1)
  %smax.i = sext i32 %10 to i64
  %sext.i = shl i64 %9, 32
  %11 = ashr exact i64 %sext.i, 32
  br label %12

12:                                               ; preds = %14, %8
  %indvars.iv.i = phi i64 [ %indvars.iv.next.i, %14 ], [ %smax.i, %8 ]
  %indvars.iv.next.i = add nsw i64 %indvars.iv.i, 1
  %13 = icmp slt i64 %indvars.iv.next.i, %11
  br i1 %13, label %14, label %X509at_get_attr_by_OBJ.exit

14:                                               ; preds = %12
  %15 = tail call ptr @sk_value(ptr noundef nonnull %0, i64 noundef %indvars.iv.next.i) #4
  %16 = load ptr, ptr %15, align 8, !tbaa !6
  %17 = tail call i32 @OBJ_cmp(ptr noundef %16, ptr noundef nonnull %4) #4
  %18 = icmp eq i32 %17, 0
  br i1 %18, label %.loopexit.loopexit.split.loop.exit.i, label %12, !llvm.loop !13

.loopexit.loopexit.split.loop.exit.i:             ; preds = %14
  %19 = trunc nsw i64 %indvars.iv.next.i to i32
  br label %X509at_get_attr_by_OBJ.exit

X509at_get_attr_by_OBJ.exit:                      ; preds = %12, %.loopexit.loopexit.split.loop.exit.i, %6, %3
  %.0 = phi i32 [ -2, %3 ], [ -1, %6 ], [ %19, %.loopexit.loopexit.split.loop.exit.i ], [ -1, %12 ]
  ret i32 %.0
}